target datalayout = "e-m:e-p270:32:32-p271:32:32-p272:64:64-i64:64-i128:128-f80:128-n8:16:32:64-S128"
target triple = "x86_64-pc-linux-gnu"

%struct.lean_object = type { i32, i32 }

@l_Lean_Elab_Command_isDefLike___closed__2 = internal global ptr null, align 8
@l_Lean_Elab_Command_isDefLike___closed__4 = internal global ptr null, align 8
@l_Lean_Elab_Command_isDefLike___closed__6 = internal global ptr null, align 8
@l_Lean_Elab_Command_isDefLike___closed__8 = internal global ptr null, align 8
@l_Lean_Elab_Command_isDefLike___closed__9 = internal global ptr null, align 8
@l_Lean_Elab_Command_isDefLike___closed__11 = internal global ptr null, align 8

; Function Attrs: alwaysinline nounwind uwtable
define internal void @lean_dec_ref(ptr noundef %0) #1 {
  %2 = alloca ptr, align 8
  store ptr %0, ptr %2, align 8, !tbaa !8
  %3 = load ptr, ptr %2, align 8, !tbaa !8
  %4 = getelementptr inbounds nuw %struct.lean_object, ptr %3, i32 0, i32 0
  %5 = load i32, ptr %4, align 4, !tbaa !17
  %6 = icmp sgt i32 %5, 1
  %7 = zext i1 %6 to i32
  %8 = sext i32 %7 to i64
  %9 = call i64 @llvm.expect.i64(i64 %8, i64 1)
  %10 = icmp ne i64 %9, 0
  br i1 %10, label %11, label %16

11:                                               ; preds = %1
  %12 = load ptr, ptr %2, align 8, !tbaa !8
  %13 = getelementptr inbounds nuw %struct.lean_object, ptr %12, i32 0, i32 0
  %14 = load i32, ptr %13, align 4, !tbaa !17
  %15 = add i32 %14, -1
  store i32 %15, ptr %13, align 4, !tbaa !17
  br label %24

16:                                               ; preds = %1
  %17 = load ptr, ptr %2, align 8, !tbaa !8
  %18 = getelementptr inbounds nuw %struct.lean_object, ptr %17, i32 0, i32 0
  %19 = load i32, ptr %18, align 4, !tbaa !17
  %20 = icmp ne i32 %19, 0
  br i1 %20, label %21, label %23

21:                                               ; preds = %16
  %22 = load ptr, ptr %2, align 8, !tbaa !8
  call void @lean_dec_ref_cold(ptr noundef %22)
  br label %23

23:                                               ; preds = %21, %16
  br label %24

24:                                               ; preds = %23, %11
  ret void
}

; Function Attrs: alwaysinline nounwind uwtable
define internal zeroext i1 @lean_is_scalar(ptr noundef %0) #1 {
  %2 = alloca ptr, align 8
  store ptr %0, ptr %2, align 8, !tbaa !8
  %3 = load ptr, ptr %2, align 8, !tbaa !8
  %4 = ptrtoint ptr %3 to i64
  %5 = and i64 %4, 1
  %6 = icmp eq i64 %5, 1
  ret i1 %6
}

; Function Attrs: alwaysinline nounwind uwtable
define internal void @lean_dec(ptr noundef %0) #1 {
  %2 = alloca ptr, align 8
  store ptr %0, ptr %2, align 8, !tbaa !8
  %3 = load ptr, ptr %2, align 8, !tbaa !8
  %4 = call zeroext i1 @lean_is_scalar(ptr noundef %3)
  br i1 %4, label %7, label %5

5:                                                ; preds = %1
  %6 = load ptr, ptr %2, align 8, !tbaa !8
  call void @lean_dec_ref(ptr noundef %6)
  br label %7

7:                                                ; preds = %5, %1
  ret void
}

; Function Attrs: nounwind uwtable
define zeroext i8 @l_Lean_Elab_Command_isDefLike(ptr noundef %0) #2 {
  %2 = alloca i8, align 1
  %3 = alloca ptr, align 8
  %4 = alloca ptr, align 8
  %5 = alloca ptr, align 8
  %6 = alloca i8, align 1
  %7 = alloca ptr, align 8
  %8 = alloca i8, align 1
  %9 = alloca ptr, align 8
  %10 = alloca i8, align 1
  %11 = alloca ptr, align 8
  %12 = alloca i8, align 1
  %13 = alloca ptr, align 8
  %14 = alloca i8, align 1
  %15 = alloca ptr, align 8
  %16 = alloca i8, align 1
  %17 = alloca i32, align 4
  %18 = alloca i8, align 1
  %19 = alloca i8, align 1
  %20 = alloca i8, align 1
  %21 = alloca i8, align 1
  %22 = alloca i8, align 1
  store ptr %0, ptr %3, align 8, !tbaa !8
  br label %23

23:                                               ; preds = %1
  call void @llvm.lifetime.start.p0(i64 8, ptr %4) #7
  call void @llvm.lifetime.start.p0(i64 8, ptr %5) #7
  call void @llvm.lifetime.start.p0(i64 1, ptr %6) #7
  %24 = load ptr, ptr %3, align 8, !tbaa !8
  %25 = call ptr @l_Lean_Syntax_getKind(ptr noundef %24)
  store ptr %25, ptr %4, align 8, !tbaa !8
  %26 = load ptr, ptr @l_Lean_Elab_Command_isDefLike___closed__2, align 8, !tbaa !8
  store ptr %26, ptr %5, align 8, !tbaa !8
  %27 = load ptr, ptr %4, align 8, !tbaa !8
  %28 = load ptr, ptr %5, align 8, !tbaa !8
  %29 = call zeroext i8 @lean_name_eq(ptr noundef %27, ptr noundef %28)
  store i8 %29, ptr %6, align 1, !tbaa !12
  %30 = load i8, ptr %6, align 1, !tbaa !12
  %31 = zext i8 %30 to i32
  %32 = icmp eq i32 %31, 0
  br i1 %32, label %33, label %88

33:                                               ; preds = %23
  call void @llvm.lifetime.start.p0(i64 8, ptr %7) #7
  call void @llvm.lifetime.start.p0(i64 1, ptr %8) #7
  %34 = load ptr, ptr @l_Lean_Elab_Command_isDefLike___closed__4, align 8, !tbaa !8
  store ptr %34, ptr %7, align 8, !tbaa !8
  %35 = load ptr, ptr %4, align 8, !tbaa !8
  %36 = load ptr, ptr %7, align 8, !tbaa !8
  %37 = call zeroext i8 @lean_name_eq(ptr noundef %35, ptr noundef %36)
  store i8 %37, ptr %8, align 1, !tbaa !12
  %38 = load i8, ptr %8, align 1, !tbaa !12
  %39 = zext i8 %38 to i32
  %40 = icmp eq i32 %39, 0
  br i1 %40, label %41, label %84

41:                                               ; preds = %33
  call void @llvm.lifetime.start.p0(i64 8, ptr %9) #7
  call void @llvm.lifetime.start.p0(i64 1, ptr %10) #7
  %42 = load ptr, ptr @l_Lean_Elab_Command_isDefLike___closed__6, align 8, !tbaa !8
  store ptr %42, ptr %9, align 8, !tbaa !8
  %43 = load ptr, ptr %4, align 8, !tbaa !8
  %44 = load ptr, ptr %9, align 8, !tbaa !8
  %45 = call zeroext i8 @lean_name_eq(ptr noundef %43, ptr noundef %44)
  store i8 %45, ptr %10, align 1, !tbaa !12
  %46 = load i8, ptr %10, align 1, !tbaa !12
  %47 = zext i8 %46 to i32
  %48 = icmp eq i32 %47, 0
  br i1 %48, label %49, label %80

49:                                               ; preds = %41
  call void @llvm.lifetime.start.p0(i64 8, ptr %11) #7
  call void @llvm.lifetime.start.p0(i64 1, ptr %12) #7
  %50 = load ptr, ptr @l_Lean_Elab_Command_isDefLike___closed__8, align 8, !tbaa !8
  store ptr %50, ptr %11, align 8, !tbaa !8
  %51 = load ptr, ptr %4, align 8, !tbaa !8
  %52 = load ptr, ptr %11, align 8, !tbaa !8
  %53 = call zeroext i8 @lean_name_eq(ptr noundef %51, ptr noundef %52)
  store i8 %53, ptr %12, align 1, !tbaa !12
  %54 = load i8, ptr %12, align 1, !tbaa !12
  %55 = zext i8 %54 to i32
  %56 = icmp eq i32 %55, 0
  br i1 %56, label %57, label %76

57:                                               ; preds = %49
  call void @llvm.lifetime.start.p0(i64 8, ptr %13) #7
  call void @llvm.lifetime.start.p0(i64 1, ptr %14) #7
  %58 = load ptr, ptr @l_Lean_Elab_Command_isDefLike___closed__9, align 8, !tbaa !8
  store ptr %58, ptr %13, align 8, !tbaa !8
  %59 = load ptr, ptr %4, align 8, !tbaa !8
  %60 = load ptr, ptr %13, align 8, !tbaa !8
  %61 = call zeroext i8 @lean_name_eq(ptr noundef %59, ptr noundef %60)
  store i8 %61, ptr %14, align 1, !tbaa !12
  %62 = load i8, ptr %14, align 1, !tbaa !12
  %63 = zext i8 %62 to i32
  %64 = icmp eq i32 %63, 0
  br i1 %64, label %65, label %72

65:                                               ; preds = %57
  call void @llvm.lifetime.start.p0(i64 8, ptr %15) #7
  call void @llvm.lifetime.start.p0(i64 1, ptr %16) #7
  %66 = load ptr, ptr @l_Lean_Elab_Command_isDefLike___closed__11, align 8, !tbaa !8
  store ptr %66, ptr %15, align 8, !tbaa !8
  %67 = load ptr, ptr %4, align 8, !tbaa !8
  %68 = load ptr, ptr %15, align 8, !tbaa !8
  %69 = call zeroext i8 @lean_name_eq(ptr noundef %67, ptr noundef %68)
  store i8 %69, ptr %16, align 1, !tbaa !12
  %70 = load ptr, ptr %4, align 8, !tbaa !8
  call void @lean_dec(ptr noundef %70)
  %71 = load i8, ptr %16, align 1, !tbaa !12
  store i8 %71, ptr %2, align 1
  store i32 1, ptr %17, align 4
  call void @llvm.lifetime.end.p0(i64 1, ptr %16) #7
  call void @llvm.lifetime.end.p0(i64 8, ptr %15) #7
  br label %75

72:                                               ; preds = %57
  call void @llvm.lifetime.start.p0(i64 1, ptr %18) #7
  %73 = load ptr, ptr %4, align 8, !tbaa !8
  call void @lean_dec(ptr noundef %73)
  store i8 1, ptr %18, align 1, !tbaa !12
  %74 = load i8, ptr %18, align 1, !tbaa !12
  store i8 %74, ptr %2, align 1
  store i32 1, ptr %17, align 4
  call void @llvm.lifetime.end.p0(i64 1, ptr %18) #7
  br label %75

75:                                               ; preds = %72, %65
  call void @llvm.lifetime.end.p0(i64 1, ptr %14) #7
  call void @llvm.lifetime.end.p0(i64 8, ptr %13) #7
  br label %79

76:                                               ; preds = %49
  call void @llvm.lifetime.start.p0(i64 1, ptr %19) #7
  %77 = load ptr, ptr %4, align 8, !tbaa !8
  call void @lean_dec(ptr noundef %77)
  store i8 1, ptr %19, align 1, !tbaa !12
  %78 = load i8, ptr %19, align 1, !tbaa !12
  store i8 %78, ptr %2, align 1
  store i32 1, ptr %17, align 4
  call void @llvm.lifetime.end.p0(i64 1, ptr %19) #7
  br label %79

79:                                               ; preds = %76, %75
  call void @llvm.lifetime.end.p0(i64 1, ptr %12) #7
  call void @llvm.lifetime.end.p0(i64 8, ptr %11) #7
  br label %83

80:                                               ; preds = %41
  call void @llvm.lifetime.start.p0(i64 1, ptr %20) #7
  %81 = load ptr, ptr %4, align 8, !tbaa !8
  call void @lean_dec(ptr noundef %81)
  store i8 1, ptr %20, align 1, !tbaa !12
  %82 = load i8, ptr %20, align 1, !tbaa !12
  store i8 %82, ptr %2, align 1
  store i32 1, ptr %17, align 4
  call void @llvm.lifetime.end.p0(i64 1, ptr %20) #7
  br label %83

83:                                               ; preds = %80, %79
  call void @llvm.lifetime.end.p0(i64 1, ptr %10) #7
  call void @llvm.lifetime.end.p0(i64 8, ptr %9) #7
  br label %87

84:                                               ; preds = %33
  call void @llvm.lifetime.start.p0(i64 1, ptr %21) #7
  %85 = load ptr, ptr %4, align 8, !tbaa !8
  call void @lean_dec(ptr noundef %85)
  store i8 1, ptr %21, align 1, !tbaa !12
  %86 = load i8, ptr %21, align 1, !tbaa !12
  store i8 %86, ptr %2, align 1
  store i32 1, ptr %17, align 4
  call void @llvm.lifetime.end.p0(i64 1, ptr %21) #7
  br label %87

87:                                               ; preds = %84, %83
  call void @llvm.lifetime.end.p0(i64 1, ptr %8) #7
  call void @llvm.lifetime.end.p0(i64 8, ptr %7) #7
  br label %91

88:                                               ; preds = %23
  call void @llvm.lifetime.start.p0(i64 1, ptr %22) #7
  %89 = load ptr, ptr %4, align 8, !tbaa !8
  call void @lean_dec(ptr noundef %89)
  store i8 1, ptr %22, align 1, !tbaa !12
  %90 = load i8, ptr %22, align 1, !tbaa !12
  store i8 %90, ptr %2, align 1
  store i32 1, ptr %17, align 4
  call void @llvm.lifetime.end.p0(i64 1, ptr %22) #7
  br label %91

91:                                               ; preds = %88, %87
  call void @llvm.lifetime.end.p0(i64 1, ptr %6) #7
  call void @llvm.lifetime.end.p0(i64 8, ptr %5) #7
  call void @llvm.lifetime.end.p0(i64 8, ptr %4) #7
  %92 = load i8, ptr %2, align 1
  ret i8 %92
}