; Function Attrs: nounwind uwtable
define zeroext i8 @l_Lean_Elab_Command_isDefLike(ptr noundef %0) local_unnamed_addr #1 {
  %2 = tail call ptr @l_Lean_Syntax_getKind(ptr noundef %0) #7
  %3 = load ptr, ptr @l_Lean_Elab_Command_isDefLike___closed__2, align 8, !tbaa !10
  %4 = tail call zeroext i8 @lean_name_eq(ptr noundef %2, ptr noundef %3) #7
  %5 = icmp eq i8 %4, 0
  br i1 %5, label %6, label %74

6:                                                ; preds = %1
  %7 = load ptr, ptr @l_Lean_Elab_Command_isDefLike___closed__4, align 8, !tbaa !10
  %8 = tail call zeroext i8 @lean_name_eq(ptr noundef %2, ptr noundef %7) #7
  %9 = icmp eq i8 %8, 0
  br i1 %9, label %10, label %64

10:                                               ; preds = %6
  %11 = load ptr, ptr @l_Lean_Elab_Command_isDefLike___closed__6, align 8, !tbaa !10
  %12 = tail call zeroext i8 @lean_name_eq(ptr noundef %2, ptr noundef %11) #7
  %13 = icmp eq i8 %12, 0
  br i1 %13, label %14, label %54

14:                                               ; preds = %10
  %15 = load ptr, ptr @l_Lean_Elab_Command_isDefLike___closed__8, align 8, !tbaa !10
  %16 = tail call zeroext i8 @lean_name_eq(ptr noundef %2, ptr noundef %15) #7
  %17 = icmp eq i8 %16, 0
  br i1 %17, label %18, label %44

18:                                               ; preds = %14
  %19 = load ptr, ptr @l_Lean_Elab_Command_isDefLike___closed__9, align 8, !tbaa !10
  %20 = tail call zeroext i8 @lean_name_eq(ptr noundef %2, ptr noundef %19) #7
  %21 = icmp eq i8 %20, 0
  br i1 %21, label %22, label %34

22:                                               ; preds = %18
  %23 = load ptr, ptr @l_Lean_Elab_Command_isDefLike___closed__11, align 8, !tbaa !10
  %24 = tail call zeroext i8 @lean_name_eq(ptr noundef %2, ptr noundef %23) #7
  %25 = ptrtoint ptr %2 to i64
  %26 = and i64 %25, 1
  %.not49 = icmp eq i64 %26, 0
  br i1 %.not49, label %27, label %lean_dec.exit34

27:                                               ; preds = %22
  %28 = load i32, ptr %2, align 4, !tbaa !4
  %29 = icmp sgt i32 %28, 1
  br i1 %29, label %30, label %32, !prof !9

30:                                               ; preds = %27
  %31 = add nsw i32 %28, -1
  store i32 %31, ptr %2, align 4, !tbaa !4
  br label %lean_dec.exit34

32:                                               ; preds = %27
  %.not.i = icmp eq i32 %28, 0
  br i1 %.not.i, label %lean_dec.exit34, label %33

33:                                               ; preds = %32
  tail call void @lean_dec_ref_cold(ptr noundef nonnull %2) #7
  br label %lean_dec.exit34

34:                                               ; preds = %18
  %35 = ptrtoint ptr %2 to i64
  %36 = and i64 %35, 1
  %.not48 = icmp eq i64 %36, 0
  br i1 %.not48, label %37, label %lean_dec.exit34

37:                                               ; preds = %34
  %38 = load i32, ptr %2, align 4, !tbaa !4
  %39 = icmp sgt i32 %38, 1
  br i1 %39, label %40, label %42, !prof !9

40:                                               ; preds = %37
  %41 = add nsw i32 %38, -1
  store i32 %41, ptr %2, align 4, !tbaa !4
  br label %lean_dec.exit34

42:                                               ; preds = %37
  %.not.i35 = icmp eq i32 %38, 0
  br i1 %.not.i35, label %lean_dec.exit34, label %43

43:                                               ; preds = %42
  tail call void @lean_dec_ref_cold(ptr noundef nonnull %2) #7
  br label %lean_dec.exit34

44:                                               ; preds = %14
  %45 = ptrtoint ptr %2 to i64
  %46 = and i64 %45, 1
  %.not47 = icmp eq i64 %46, 0
  br i1 %.not47, label %47, label %lean_dec.exit34

47:                                               ; preds = %44
  %48 = load i32, ptr %2, align 4, !tbaa !4
  %49 = icmp sgt i32 %48, 1
  br i1 %49, label %50, label %52, !prof !9

50:                                               ; preds = %47
  %51 = add nsw i32 %48, -1
  store i32 %51, ptr %2, align 4, !tbaa !4
  br label %lean_dec.exit34

52:                                               ; preds = %47
  %.not.i37 = icmp eq i32 %48, 0
  br i1 %.not.i37, label %lean_dec.exit34, label %53

53:                                               ; preds = %52
  tail call void @lean_dec_ref_cold(ptr noundef nonnull %2) #7
  br label %lean_dec.exit34

54:                                               ; preds = %10
  %55 = ptrtoint ptr %2 to i64
  %56 = and i64 %55, 1
  %.not46 = icmp eq i64 %56, 0
  br i1 %.not46, label %57, label %lean_dec.exit34

57:                                               ; preds = %54
  %58 = load i32, ptr %2, align 4, !tbaa !4
  %59 = icmp sgt i32 %58, 1
  br i1 %59, label %60, label %62, !prof !9

60:                                               ; preds = %57
  %61 = add nsw i32 %58, -1
  store i32 %61, ptr %2, align 4, !tbaa !4
  br label %lean_dec.exit34

62:                                               ; preds = %57
  %.not.i39 = icmp eq i32 %58, 0
  br i1 %.not.i39, label %lean_dec.exit34, label %63

63:                                               ; preds = %62
  tail call void @lean_dec_ref_cold(ptr noundef nonnull %2) #7
  br label %lean_dec.exit34

64:                                               ; preds = %6
  %65 = ptrtoint ptr %2 to i64
  %66 = and i64 %65, 1
  %.not45 = icmp eq i64 %66, 0
  br i1 %.not45, label %67, label %lean_dec.exit34

67:                                               ; preds = %64
  %68 = load i32, ptr %2, align 4, !tbaa !4
  %69 = icmp sgt i32 %68, 1
  br i1 %69, label %70, label %72, !prof !9

70:                                               ; preds = %67
  %71 = add nsw i32 %68, -1
  store i32 %71, ptr %2, align 4, !tbaa !4
  br label %lean_dec.exit34

72:                                               ; preds = %67
  %.not.i41 = icmp eq i32 %68, 0
  br i1 %.not.i41, label %lean_dec.exit34, label %73

73:                                               ; preds = %72
  tail call void @lean_dec_ref_cold(ptr noundef nonnull %2) #7
  br label %lean_dec.exit34

74:                                               ; preds = %1
  %75 = ptrtoint ptr %2 to i64
  %76 = and i64 %75, 1
  %.not = icmp eq i64 %76, 0
  br i1 %.not, label %77, label %lean_dec.exit34

77:                                               ; preds = %74
  %78 = load i32, ptr %2, align 4, !tbaa !4
  %79 = icmp sgt i32 %78, 1
  br i1 %79, label %80, label %82, !prof !9

80:                                               ; preds = %77
  %81 = add nsw i32 %78, -1
  store i32 %81, ptr %2, align 4, !tbaa !4
  br label %lean_dec.exit34

82:                                               ; preds = %77
  %.not.i43 = icmp eq i32 %78, 0
  br i1 %.not.i43, label %lean_dec.exit34, label %83

83:                                               ; preds = %82
  tail call void @lean_dec_ref_cold(ptr noundef nonnull %2) #7
  br label %lean_dec.exit34

lean_dec.exit34:                                  ; preds = %74, %80, %82, %83, %64, %70, %72, %73, %54, %60, %62, %63, %44, %50, %52, %53, %34, %40, %42, %43, %22, %30, %32, %33
  %.4 = phi i8 [ %24, %33 ], [ %24, %32 ], [ %24, %30 ], [ %24, %22 ], [ 1, %43 ], [ 1, %42 ], [ 1, %40 ], [ 1, %34 ], [ 1, %53 ], [ 1, %52 ], [ 1, %50 ], [ 1, %44 ], [ 1, %63 ], [ 1, %62 ], [ 1, %60 ], [ 1, %54 ], [ 1, %73 ], [ 1, %72 ], [ 1, %70 ], [ 1, %64 ], [ 1, %83 ], [ 1, %82 ], [ 1, %80 ], [ 1, %74 ]
  ret i8 %.4
}